target datalayout = "e-m:e-p270:32:32-p271:32:32-p272:64:64-i64:64-i128:128-f80:128-n8:16:32:64-S128"
target triple = "x86_64-pc-linux-gnu"

%struct.__va_list_tag = type { i32, i32, ptr, ptr }

; Function Attrs: null_pointer_is_valid sspstrong uwtable
define ptr @proto_tree_add_eui64_format_value(ptr noundef %0, i32 noundef %1, ptr noundef %2, i32 noundef %3, i32 noundef %4, i64 noundef %5, ptr noundef %6, ...) #0 {
  %8 = alloca ptr, align 8
  %9 = alloca i32, align 4
  %10 = alloca ptr, align 8
  %11 = alloca i32, align 4
  %12 = alloca i32, align 4
  %13 = alloca i64, align 8
  %14 = alloca ptr, align 8
  %15 = alloca ptr, align 8
  %16 = alloca [1 x %struct.__va_list_tag], align 16
  store ptr %0, ptr %8, align 8
  store i32 %1, ptr %9, align 4
  store ptr %2, ptr %10, align 8
  store i32 %3, ptr %11, align 4
  store i32 %4, ptr %12, align 4
  store i64 %5, ptr %13, align 8
  store ptr %6, ptr %14, align 8
  call void @llvm.lifetime.start.p0(i64 8, ptr %15) #24
  call void @llvm.lifetime.start.p0(i64 24, ptr %16) #24
  %17 = load ptr, ptr %8, align 8
  %18 = load i32, ptr %9, align 4
  %19 = load ptr, ptr %10, align 8
  %20 = load i32, ptr %11, align 4
  %21 = load i32, ptr %12, align 4
  %22 = load i64, ptr %13, align 8
  %23 = call ptr @proto_tree_add_eui64(ptr noundef %17, i32 noundef %18, ptr noundef %19, i32 noundef %20, i32 noundef %21, i64 noundef %22)
  store ptr %23, ptr %15, align 8
  %24 = load ptr, ptr %15, align 8
  %25 = load ptr, ptr %8, align 8
  %26 = icmp ne ptr %24, %25
  br i1 %26, label %27, label %33

27:                                               ; preds = %7
  %28 = getelementptr inbounds [1 x %struct.__va_list_tag], ptr %16, i64 0, i64 0
  call void @llvm.va_start.p0(ptr %28)
  %29 = load ptr, ptr %15, align 8
  %30 = load ptr, ptr %14, align 8
  %31 = getelementptr inbounds [1 x %struct.__va_list_tag], ptr %16, i64 0, i64 0
  call void @proto_tree_set_representation_value(ptr noundef %29, ptr noundef %30, ptr noundef %31)
  %32 = getelementptr inbounds [1 x %struct.__va_list_tag], ptr %16, i64 0, i64 0
  call void @llvm.va_end.p0(ptr %32)
  br label %33

33:                                               ; preds = %27, %7
  %34 = load ptr, ptr %15, align 8
  call void @llvm.lifetime.end.p0(i64 24, ptr %16) #24
  call void @llvm.lifetime.end.p0(i64 8, ptr %15) #24
  ret ptr %34
}