; Function Attrs: null_pointer_is_valid sspstrong uwtable
define noundef ptr @proto_tree_add_eui64_format_value(ptr noundef %0, i32 noundef %1, ptr noundef %2, i32 noundef %3, i32 noundef %4, i64 noundef %5, ptr noundef %6, ...) local_unnamed_addr #0 {
  %8 = alloca [1 x %struct.__va_list_tag], align 16
  call void @llvm.lifetime.start.p0(i64 24, ptr nonnull %8) #39
  %9 = tail call ptr @proto_tree_add_eui64(ptr noundef %0, i32 noundef %1, ptr noundef %2, i32 noundef %3, i32 noundef %4, i64 noundef %5)
  %.not = icmp eq ptr %9, %0
  br i1 %.not, label %11, label %10

10:                                               ; preds = %7
  call void @llvm.va_start.p0(ptr nonnull %8)
  call fastcc void @proto_tree_set_representation_value(ptr noundef %9, ptr noundef %6, ptr noundef nonnull %8)
  call void @llvm.va_end.p0(ptr nonnull %8)
  br label %11

11:                                               ; preds = %10, %7
  call void @llvm.lifetime.end.p0(i64 24, ptr nonnull %8) #39
  ret ptr %9
}